; Function Attrs: nofree norecurse nosync nounwind memory(readwrite, inaccessiblemem: none) uwtable
define hidden void @lxb_html_tree_open_elements_remove_by_node(ptr nocapture noundef readonly %0, ptr noundef readnone %1) local_unnamed_addr #0 {
  %3 = getelementptr inbounds i8, ptr %0, i64 32
  %4 = load ptr, ptr %3, align 8
  %5 = load ptr, ptr %4, align 8
  %6 = getelementptr inbounds i8, ptr %4, i64 16
  %7 = load i64, ptr %6, align 8
  br label %8

8:                                                ; preds = %9, %2
  %.0 = phi i64 [ %7, %2 ], [ %10, %9 ]
  %.not = icmp eq i64 %.0, 0
  br i1 %.not, label %.loopexit, label %9

9:                                                ; preds = %8
  %10 = add i64 %.0, -1
  %11 = getelementptr inbounds ptr, ptr %5, i64 %10
  %12 = load ptr, ptr %11, align 8
  %13 = icmp eq ptr %12, %1
  br i1 %13, label %14, label %8

14:                                               ; preds = %9
  %15 = getelementptr inbounds ptr, ptr %5, i64 %10
  %16 = sub i64 %7, %.0
  %17 = getelementptr inbounds i8, ptr %15, i64 8
  %18 = shl i64 %16, 3
  tail call void @llvm.memmove.p0.p0.i64(ptr nonnull align 8 %15, ptr nonnull align 8 %17, i64 %18, i1 false)
  %19 = load ptr, ptr %3, align 8
  %20 = getelementptr inbounds i8, ptr %19, i64 16
  %21 = load i64, ptr %20, align 8
  %22 = add i64 %21, -1
  store i64 %22, ptr %20, align 8
  br label %.loopexit

.loopexit:                                        ; preds = %8, %14
  ret void
}